target datalayout = "e-m:e-p270:32:32-p271:32:32-p272:64:64-i64:64-i128:128-f80:128-n8:16:32:64-S128"
target triple = "x86_64-pc-linux-gnu"

%struct.SDL_GPUDevice = type { ptr, ptr, ptr, ptr, ptr, ptr, ptr, ptr, ptr, ptr, ptr, ptr, ptr, ptr, ptr, ptr, ptr, ptr, ptr, ptr, ptr, ptr, ptr, ptr, ptr, ptr, ptr, ptr, ptr, ptr, ptr, ptr, ptr, ptr, ptr, ptr, ptr, ptr, ptr, ptr, ptr, ptr, ptr, ptr, ptr, ptr, ptr, ptr, ptr, ptr, ptr, ptr, ptr, ptr, ptr, ptr, ptr, ptr, ptr, ptr, ptr, ptr, ptr, ptr, ptr, ptr, ptr, ptr, ptr, ptr, ptr, ptr, ptr, ptr, ptr, ptr, ptr, ptr, ptr, ptr, ptr, ptr, ptr, ptr, ptr, i32, i8 }
%struct.CommandBufferCommonHeader = type { ptr, %struct.RenderPass, i8, %struct.Pass, i8, %struct.Pass, i8, i8, i8 }
%struct.RenderPass = type { ptr, i8, [4 x ptr], i32, ptr }
%struct.Pass = type { ptr, i8 }
%struct.SDL_GPUBufferLocation = type { ptr, i32 }

@.str.4 = private unnamed_addr constant [26 x i8] c"Parameter '%s' is invalid\00", align 1
@.str.8 = private unnamed_addr constant [103 x i8] c"generated/home/dtcxzyw/WorkSpace/Projects/compilers/llvm-opt-benchmark/bench/sdl/SDL/src/gpu/SDL_gpu.c\00", align 1
@.str.286 = private unnamed_addr constant [10 x i8] c"copy_pass\00", align 1
@.str.287 = private unnamed_addr constant [7 x i8] c"source\00", align 1
@.str.288 = private unnamed_addr constant [12 x i8] c"destination\00", align 1
@SDL_CopyGPUBufferToBuffer_REAL.sdl_assert_data = internal global { i8, [3 x i8], i32, ptr, ptr, i32, [4 x i8], ptr, ptr } { i8 0, [3 x i8] zeroinitializer, i32 0, ptr @.str.290, ptr null, i32 0, [4 x i8] zeroinitializer, ptr null, ptr null }, align 8
@__func__.SDL_CopyGPUBufferToBuffer_REAL = private unnamed_addr constant [31 x i8] c"SDL_CopyGPUBufferToBuffer_REAL\00", align 1
@SDL_CopyGPUBufferToBuffer_REAL.sdl_assert_data.309 = internal global { i8, [3 x i8], i32, ptr, ptr, i32, [4 x i8], ptr, ptr } { i8 0, [3 x i8] zeroinitializer, i32 0, ptr @.str.310, ptr null, i32 0, [4 x i8] zeroinitializer, ptr null, ptr null }, align 8
@SDL_CopyGPUBufferToBuffer_REAL.sdl_assert_data.311 = internal global { i8, [3 x i8], i32, ptr, ptr, i32, [4 x i8], ptr, ptr } { i8 0, [3 x i8] zeroinitializer, i32 0, ptr @.str.300, ptr null, i32 0, [4 x i8] zeroinitializer, ptr null, ptr null }, align 8

; Function Attrs: nounwind uwtable
define hidden void @SDL_CopyGPUBufferToBuffer_REAL(ptr noundef %0, ptr noundef %1, ptr noundef %2, i32 noundef %3, i1 noundef zeroext %4) #0 {
  %6 = alloca ptr, align 8
  %7 = alloca ptr, align 8
  %8 = alloca ptr, align 8
  %9 = alloca i32, align 4
  %10 = alloca i8, align 1
  %11 = alloca i32, align 4
  %12 = alloca i32, align 4
  %13 = alloca i32, align 4
  %14 = alloca i32, align 4
  store ptr %0, ptr %6, align 8
  store ptr %1, ptr %7, align 8
  store ptr %2, ptr %8, align 8
  store i32 %3, ptr %9, align 4
  %15 = zext i1 %4 to i8
  store i8 %15, ptr %10, align 1
  %16 = load ptr, ptr %6, align 8
  %17 = icmp eq ptr %16, null
  br i1 %17, label %18, label %20

18:                                               ; preds = %5
  %19 = call zeroext i1 (ptr, ...) @SDL_SetError_REAL(ptr noundef @.str.4, ptr noundef @.str.286)
  br label %122

20:                                               ; preds = %5
  %21 = load ptr, ptr %7, align 8
  %22 = icmp eq ptr %21, null
  br i1 %22, label %23, label %25

23:                                               ; preds = %20
  %24 = call zeroext i1 (ptr, ...) @SDL_SetError_REAL(ptr noundef @.str.4, ptr noundef @.str.287)
  br label %122

25:                                               ; preds = %20
  %26 = load ptr, ptr %8, align 8
  %27 = icmp eq ptr %26, null
  br i1 %27, label %28, label %30

28:                                               ; preds = %25
  %29 = call zeroext i1 (ptr, ...) @SDL_SetError_REAL(ptr noundef @.str.4, ptr noundef @.str.288)
  br label %122

30:                                               ; preds = %25
  %31 = load ptr, ptr %6, align 8
  %32 = getelementptr inbounds nuw %struct.Pass, ptr %31, i32 0, i32 0
  %33 = load ptr, ptr %32, align 8
  %34 = getelementptr inbounds nuw %struct.CommandBufferCommonHeader, ptr %33, i32 0, i32 0
  %35 = load ptr, ptr %34, align 8
  %36 = getelementptr inbounds nuw %struct.SDL_GPUDevice, ptr %35, i32 0, i32 86
  %37 = load i8, ptr %36, align 4, !range !5, !noundef !6
  %38 = trunc i8 %37 to i1
  br i1 %38, label %39, label %106

39:                                               ; preds = %30
  %40 = load ptr, ptr %6, align 8
  %41 = getelementptr inbounds nuw %struct.Pass, ptr %40, i32 0, i32 1
  %42 = load i8, ptr %41, align 8, !range !5, !noundef !6
  %43 = trunc i8 %42 to i1
  br i1 %43, label %61, label %44

44:                                               ; preds = %39
  br label %45

45:                                               ; preds = %44
  br label %46

46:                                               ; preds = %45, %57
  call void @llvm.lifetime.start.p0(i64 4, ptr %11) #6
  %47 = call i32 @SDL_ReportAssertion_REAL(ptr noundef @SDL_CopyGPUBufferToBuffer_REAL.sdl_assert_data, ptr noundef @__func__.SDL_CopyGPUBufferToBuffer_REAL, ptr noundef @.str.8, i32 noundef 2596)
  store i32 %47, ptr %11, align 4
  %48 = load i32, ptr %11, align 4
  %49 = icmp eq i32 %48, 0
  br i1 %49, label %50, label %51

50:                                               ; preds = %46
  store i32 4, ptr %12, align 4
  br label %57

51:                                               ; preds = %46
  %52 = load i32, ptr %11, align 4
  %53 = icmp eq i32 %52, 1
  br i1 %53, label %54, label %55

54:                                               ; preds = %51
  call void @llvm.debugtrap()
  br label %55

55:                                               ; preds = %54, %51
  br label %56

56:                                               ; preds = %55
  store i32 5, ptr %12, align 4
  br label %57

57:                                               ; preds = %56, %50
  call void @llvm.lifetime.end.p0(i64 4, ptr %11) #6
  %58 = load i32, ptr %12, align 4
  switch i32 %58, label %123 [
    i32 4, label %46
    i32 5, label %59
  ]

59:                                               ; preds = %57
  br label %60

60:                                               ; preds = %59
  br label %122

61:                                               ; preds = %39
  %62 = load ptr, ptr %7, align 8
  %63 = getelementptr inbounds nuw %struct.SDL_GPUBufferLocation, ptr %62, i32 0, i32 0
  %64 = load ptr, ptr %63, align 8
  %65 = icmp eq ptr %64, null
  br i1 %65, label %66, label %83

66:                                               ; preds = %61
  br label %67

67:                                               ; preds = %66
  br label %68

68:                                               ; preds = %67, %79
  call void @llvm.lifetime.start.p0(i64 4, ptr %13) #6
  %69 = call i32 @SDL_ReportAssertion_REAL(ptr noundef @SDL_CopyGPUBufferToBuffer_REAL.sdl_assert_data.309, ptr noundef @__func__.SDL_CopyGPUBufferToBuffer_REAL, ptr noundef @.str.8, i32 noundef 2598)
  store i32 %69, ptr %13, align 4
  %70 = load i32, ptr %13, align 4
  %71 = icmp eq i32 %70, 0
  br i1 %71, label %72, label %73

72:                                               ; preds = %68
  store i32 8, ptr %12, align 4
  br label %79

73:                                               ; preds = %68
  %74 = load i32, ptr %13, align 4
  %75 = icmp eq i32 %74, 1
  br i1 %75, label %76, label %77

76:                                               ; preds = %73
  call void @llvm.debugtrap()
  br label %77

77:                                               ; preds = %76, %73
  br label %78

78:                                               ; preds = %77
  store i32 9, ptr %12, align 4
  br label %79

79:                                               ; preds = %78, %72
  call void @llvm.lifetime.end.p0(i64 4, ptr %13) #6
  %80 = load i32, ptr %12, align 4
  switch i32 %80, label %123 [
    i32 8, label %68
    i32 9, label %81
  ]

81:                                               ; preds = %79
  br label %82

82:                                               ; preds = %81
  br label %122

83:                                               ; preds = %61
  %84 = load ptr, ptr %8, align 8
  %85 = getelementptr inbounds nuw %struct.SDL_GPUBufferLocation, ptr %84, i32 0, i32 0
  %86 = load ptr, ptr %85, align 8
  %87 = icmp eq ptr %86, null
  br i1 %87, label %88, label %105

88:                                               ; preds = %83
  br label %89

89:                                               ; preds = %88
  br label %90

90:                                               ; preds = %89, %101
  call void @llvm.lifetime.start.p0(i64 4, ptr %14) #6
  %91 = call i32 @SDL_ReportAssertion_REAL(ptr noundef @SDL_CopyGPUBufferToBuffer_REAL.sdl_assert_data.311, ptr noundef @__func__.SDL_CopyGPUBufferToBuffer_REAL, ptr noundef @.str.8, i32 noundef 2602)
  store i32 %91, ptr %14, align 4
  %92 = load i32, ptr %14, align 4
  %93 = icmp eq i32 %92, 0
  br i1 %93, label %94, label %95

94:                                               ; preds = %90
  store i32 12, ptr %12, align 4
  br label %101

95:                                               ; preds = %90
  %96 = load i32, ptr %14, align 4
  %97 = icmp eq i32 %96, 1
  br i1 %97, label %98, label %99

98:                                               ; preds = %95
  call void @llvm.debugtrap()
  br label %99

99:                                               ; preds = %98, %95
  br label %100

100:                                              ; preds = %99
  store i32 13, ptr %12, align 4
  br label %101

101:                                              ; preds = %100, %94
  call void @llvm.lifetime.end.p0(i64 4, ptr %14) #6
  %102 = load i32, ptr %12, align 4
  switch i32 %102, label %123 [
    i32 12, label %90
    i32 13, label %103
  ]

103:                                              ; preds = %101
  br label %104

104:                                              ; preds = %103
  br label %122

105:                                              ; preds = %83
  br label %106

106:                                              ; preds = %105, %30
  %107 = load ptr, ptr %6, align 8
  %108 = getelementptr inbounds nuw %struct.Pass, ptr %107, i32 0, i32 0
  %109 = load ptr, ptr %108, align 8
  %110 = getelementptr inbounds nuw %struct.CommandBufferCommonHeader, ptr %109, i32 0, i32 0
  %111 = load ptr, ptr %110, align 8
  %112 = getelementptr inbounds nuw %struct.SDL_GPUDevice, ptr %111, i32 0, i32 57
  %113 = load ptr, ptr %112, align 8
  %114 = load ptr, ptr %6, align 8
  %115 = getelementptr inbounds nuw %struct.Pass, ptr %114, i32 0, i32 0
  %116 = load ptr, ptr %115, align 8
  %117 = load ptr, ptr %7, align 8
  %118 = load ptr, ptr %8, align 8
  %119 = load i32, ptr %9, align 4
  %120 = load i8, ptr %10, align 1, !range !5, !noundef !6
  %121 = trunc i8 %120 to i1
  call void %113(ptr noundef %116, ptr noundef %117, ptr noundef %118, i32 noundef %119, i1 noundef zeroext %121)
  br label %122

122:                                              ; preds = %106, %104, %82, %60, %28, %23, %18
  ret void

123:                                              ; preds = %101, %79, %57
  unreachable
}