; Function Attrs: nounwind uwtable
define hidden void @SDL_CopyGPUBufferToBuffer_REAL(ptr noundef readonly captures(address_is_null) %0, ptr noundef %1, ptr noundef %2, i32 noundef %3, i1 noundef zeroext %4) local_unnamed_addr #0 {
  %6 = icmp eq ptr %0, null
  br i1 %6, label %7, label %9

7:                                                ; preds = %5
  %8 = tail call zeroext i1 (ptr, ...) @SDL_SetError_REAL(ptr noundef nonnull @.str.4, ptr noundef nonnull @.str.286) #7
  br label %.thread

9:                                                ; preds = %5
  %10 = icmp eq ptr %1, null
  br i1 %10, label %11, label %13

11:                                               ; preds = %9
  %12 = tail call zeroext i1 (ptr, ...) @SDL_SetError_REAL(ptr noundef nonnull @.str.4, ptr noundef nonnull @.str.287) #7
  br label %.thread

13:                                               ; preds = %9
  %14 = icmp eq ptr %2, null
  br i1 %14, label %15, label %17

15:                                               ; preds = %13
  %16 = tail call zeroext i1 (ptr, ...) @SDL_SetError_REAL(ptr noundef nonnull @.str.4, ptr noundef nonnull @.str.288) #7
  br label %.thread

17:                                               ; preds = %13
  %18 = load ptr, ptr %0, align 8
  %19 = load ptr, ptr %18, align 8
  %20 = getelementptr inbounds nuw i8, ptr %19, i64 684
  %21 = load i8, ptr %20, align 4, !range !5, !noundef !6
  %22 = trunc nuw i8 %21 to i1
  br i1 %22, label %23, label %39

23:                                               ; preds = %17
  %24 = getelementptr inbounds nuw i8, ptr %0, i64 8
  %25 = load i8, ptr %24, align 8, !range !5, !noundef !6
  %26 = trunc nuw i8 %25 to i1
  br i1 %26, label %29, label %.preheader44

.preheader44:                                     ; preds = %23, %.preheader44
  %27 = tail call i32 @SDL_ReportAssertion_REAL(ptr noundef nonnull @SDL_CopyGPUBufferToBuffer_REAL.sdl_assert_data, ptr noundef nonnull @__func__.SDL_CopyGPUBufferToBuffer_REAL, ptr noundef nonnull @.str.8, i32 noundef 2596) #7
  switch i32 %27, label %.thread [
    i32 0, label %.preheader44
    i32 1, label %28
  ]

28:                                               ; preds = %.preheader44
  tail call void @llvm.debugtrap()
  br label %.thread

29:                                               ; preds = %23
  %30 = load ptr, ptr %1, align 8
  %31 = icmp eq ptr %30, null
  br i1 %31, label %.preheader, label %34

.preheader:                                       ; preds = %29, %.preheader
  %32 = tail call i32 @SDL_ReportAssertion_REAL(ptr noundef nonnull @SDL_CopyGPUBufferToBuffer_REAL.sdl_assert_data.309, ptr noundef nonnull @__func__.SDL_CopyGPUBufferToBuffer_REAL, ptr noundef nonnull @.str.8, i32 noundef 2598) #7
  switch i32 %32, label %.thread [
    i32 0, label %.preheader
    i32 1, label %33
  ]

33:                                               ; preds = %.preheader
  tail call void @llvm.debugtrap()
  br label %.thread

34:                                               ; preds = %29
  %35 = load ptr, ptr %2, align 8
  %36 = icmp eq ptr %35, null
  br i1 %36, label %.preheader42, label %39

.preheader42:                                     ; preds = %34, %.preheader42
  %37 = tail call i32 @SDL_ReportAssertion_REAL(ptr noundef nonnull @SDL_CopyGPUBufferToBuffer_REAL.sdl_assert_data.311, ptr noundef nonnull @__func__.SDL_CopyGPUBufferToBuffer_REAL, ptr noundef nonnull @.str.8, i32 noundef 2602) #7
  switch i32 %37, label %.thread [
    i32 0, label %.preheader42
    i32 1, label %38
  ]

38:                                               ; preds = %.preheader42
  tail call void @llvm.debugtrap()
  br label %.thread

39:                                               ; preds = %34, %17
  %40 = getelementptr inbounds nuw i8, ptr %19, i64 456
  %41 = load ptr, ptr %40, align 8
  tail call void %41(ptr noundef nonnull %18, ptr noundef nonnull %1, ptr noundef nonnull %2, i32 noundef %3, i1 noundef zeroext %4) #7
  br label %.thread

.thread:                                          ; preds = %.preheader44, %.preheader42, %.preheader, %38, %33, %28, %39, %15, %11, %7
  ret void
}